; Function Attrs: nounwind uwtable
define dso_local { ptr, ptr } @gen_call(ptr noundef readonly captures(none) %0, ptr %1, ptr %2) local_unnamed_addr #1 {
  %4 = tail call ptr @jv_mem_alloc(i64 noundef 160) #17
  %5 = getelementptr inbounds nuw i8, ptr %4, i64 16
  tail call void @llvm.memset.p0.i64(ptr noundef nonnull align 8 dereferenceable(16) %4, i8 0, i64 16, i1 false)
  store i32 28, ptr %5, align 8, !tbaa !25
  %6 = getelementptr inbounds nuw i8, ptr %4, i64 152
  store i32 -1, ptr %6, align 8, !tbaa !26
  %7 = getelementptr inbounds nuw i8, ptr %4, i64 80
  %8 = getelementptr inbounds nuw i8, ptr %4, i64 104
  tail call void @llvm.memset.p0.i64(ptr noundef nonnull align 8 dereferenceable(24) %7, i8 0, i64 24, i1 false)
  store i32 -1, ptr %8, align 8, !tbaa !27
  %9 = getelementptr inbounds nuw i8, ptr %4, i64 108
  store i32 -1, ptr %9, align 4, !tbaa !28
  %10 = getelementptr inbounds nuw i8, ptr %4, i64 112
  %11 = getelementptr inbounds nuw i8, ptr %4, i64 72
  tail call void @llvm.memset.p0.i64(ptr noundef nonnull align 8 dereferenceable(32) %10, i8 0, i64 32, i1 false)
  store i64 -1, ptr %11, align 8
  %12 = getelementptr inbounds nuw i8, ptr %4, i64 64
  store ptr null, ptr %12, align 8, !tbaa !21
  %13 = tail call noalias ptr @strdup(ptr noundef readonly %0) #17
  %14 = getelementptr inbounds nuw i8, ptr %4, i64 88
  store ptr %13, ptr %14, align 8, !tbaa !30
  %15 = getelementptr inbounds nuw i8, ptr %4, i64 96
  store i32 1, ptr %15, align 8, !tbaa !31
  %16 = getelementptr inbounds nuw i8, ptr %4, i64 128
  store ptr %1, ptr %16, align 8, !tbaa !50
  %.sroa.2.0..sroa_idx = getelementptr inbounds nuw i8, ptr %4, i64 136
  store ptr %2, ptr %.sroa.2.0..sroa_idx, align 8, !tbaa !50
  %.not1.i = icmp eq ptr %1, null
  br i1 %.not1.i, label %block_count_actuals.exit, label %.lr.ph.i

.lr.ph.i:                                         ; preds = %3, %21
  %.03.i = phi ptr [ %22, %21 ], [ %1, %3 ]
  %.042.i = phi i32 [ %.1.i, %21 ], [ 0, %3 ]
  %17 = getelementptr inbounds nuw i8, ptr %.03.i, i64 16
  %18 = load i32, ptr %17, align 8, !tbaa !25
  switch i32 %18, label %21 [
    i32 33, label %19
    i32 31, label %19
    i32 34, label %19
  ]

19:                                               ; preds = %.lr.ph.i, %.lr.ph.i, %.lr.ph.i
  %20 = add nsw i32 %.042.i, 1
  br label %21

21:                                               ; preds = %19, %.lr.ph.i
  %.1.i = phi i32 [ %.042.i, %.lr.ph.i ], [ %20, %19 ]
  %22 = load ptr, ptr %.03.i, align 8, !tbaa !22
  %.not.i = icmp eq ptr %22, null
  br i1 %.not.i, label %block_count_actuals.exit, label %.lr.ph.i, !llvm.loop !52

block_count_actuals.exit:                         ; preds = %21, %3
  %.04.lcssa.i = phi i32 [ 0, %3 ], [ %.1.i, %21 ]
  %.fca.0.insert.i.i = insertvalue { ptr, ptr } poison, ptr %4, 0
  %.fca.1.insert.i.i = insertvalue { ptr, ptr } %.fca.0.insert.i.i, ptr %4, 1
  store i32 %.04.lcssa.i, ptr %9, align 4, !tbaa !28
  ret { ptr, ptr } %.fca.1.insert.i.i
}